; Function Attrs: nounwind uwtable
define noundef i32 @Gem_ManFree(ptr noundef captures(none) %0) local_unnamed_addr #0 {
  %2 = getelementptr inbounds nuw i8, ptr %0, i64 24
  %3 = load ptr, ptr %2, align 8, !tbaa !38
  %4 = icmp eq ptr %3, null
  br i1 %4, label %Vec_MemHashFree.exit, label %5

5:                                                ; preds = %1
  %6 = getelementptr inbounds nuw i8, ptr %3, i64 32
  %7 = load ptr, ptr %6, align 8, !tbaa !47
  %8 = icmp eq ptr %7, null
  br i1 %8, label %Vec_IntFreeP.exit.i, label %9

9:                                                ; preds = %5
  %10 = getelementptr inbounds nuw i8, ptr %7, i64 8
  %11 = load ptr, ptr %10, align 8, !tbaa !34
  %.not.i.i = icmp eq ptr %11, null
  br i1 %.not.i.i, label %14, label %.thread.i.i

.thread.i.i:                                      ; preds = %9
  tail call void @free(ptr noundef nonnull %11) #22
  %12 = load ptr, ptr %6, align 8, !tbaa !47
  %13 = getelementptr inbounds nuw i8, ptr %12, i64 8
  store ptr null, ptr %13, align 8, !tbaa !34
  br label %14

14:                                               ; preds = %.thread.i.i, %9
  %15 = phi ptr [ %12, %.thread.i.i ], [ %7, %9 ]
  tail call void @free(ptr noundef nonnull %15) #22
  store ptr null, ptr %6, align 8, !tbaa !47
  br label %Vec_IntFreeP.exit.i

Vec_IntFreeP.exit.i:                              ; preds = %14, %5
  %16 = getelementptr inbounds nuw i8, ptr %3, i64 40
  %17 = load ptr, ptr %16, align 8, !tbaa !47
  %18 = icmp eq ptr %17, null
  br i1 %18, label %Vec_MemHashFree.exit, label %19

19:                                               ; preds = %Vec_IntFreeP.exit.i
  %20 = getelementptr inbounds nuw i8, ptr %17, i64 8
  %21 = load ptr, ptr %20, align 8, !tbaa !34
  %.not.i3.i = icmp eq ptr %21, null
  br i1 %.not.i3.i, label %24, label %.thread.i4.i

.thread.i4.i:                                     ; preds = %19
  tail call void @free(ptr noundef nonnull %21) #22
  %22 = load ptr, ptr %16, align 8, !tbaa !47
  %23 = getelementptr inbounds nuw i8, ptr %22, i64 8
  store ptr null, ptr %23, align 8, !tbaa !34
  br label %24

24:                                               ; preds = %.thread.i4.i, %19
  %25 = phi ptr [ %22, %.thread.i4.i ], [ %17, %19 ]
  tail call void @free(ptr noundef nonnull %25) #22
  store ptr null, ptr %16, align 8, !tbaa !47
  br label %Vec_MemHashFree.exit

Vec_MemHashFree.exit:                             ; preds = %1, %Vec_IntFreeP.exit.i, %24
  %26 = load ptr, ptr %2, align 8, !tbaa !38
  %27 = getelementptr inbounds nuw i8, ptr %26, i64 20
  %28 = load i32, ptr %27, align 4, !tbaa !27
  %.not19.i = icmp slt i32 %28, 0
  %.phi.trans.insert.i = getelementptr inbounds nuw i8, ptr %26, i64 24
  %.pre23.i = load ptr, ptr %.phi.trans.insert.i, align 8, !tbaa !48
  br i1 %.not19.i, label %._crit_edge.i, label %.lr.ph.i

.lr.ph.i:                                         ; preds = %Vec_MemHashFree.exit, %36
  %29 = phi i32 [ %37, %36 ], [ %28, %Vec_MemHashFree.exit ]
  %30 = phi ptr [ %38, %36 ], [ %.pre23.i, %Vec_MemHashFree.exit ]
  %indvars.iv.i = phi i64 [ %indvars.iv.next.i, %36 ], [ 0, %Vec_MemHashFree.exit ]
  %31 = getelementptr inbounds nuw ptr, ptr %30, i64 %indvars.iv.i
  %32 = load ptr, ptr %31, align 8, !tbaa !45
  %.not18.i = icmp eq ptr %32, null
  br i1 %.not18.i, label %36, label %33

33:                                               ; preds = %.lr.ph.i
  tail call void @free(ptr noundef nonnull %32) #22
  %34 = load ptr, ptr %.phi.trans.insert.i, align 8, !tbaa !48
  %35 = getelementptr inbounds nuw ptr, ptr %34, i64 %indvars.iv.i
  store ptr null, ptr %35, align 8, !tbaa !45
  %.pre22.i = load i32, ptr %27, align 4, !tbaa !27
  br label %36

36:                                               ; preds = %33, %.lr.ph.i
  %37 = phi i32 [ %.pre22.i, %33 ], [ %29, %.lr.ph.i ]
  %38 = phi ptr [ %34, %33 ], [ %30, %.lr.ph.i ]
  %indvars.iv.next.i = add nuw nsw i64 %indvars.iv.i, 1
  %39 = sext i32 %37 to i64
  %.not.not.i = icmp slt i64 %indvars.iv.i, %39
  br i1 %.not.not.i, label %.lr.ph.i, label %._crit_edge.thread.i, !llvm.loop !49

._crit_edge.i:                                    ; preds = %Vec_MemHashFree.exit
  %.not16.i = icmp eq ptr %.pre23.i, null
  br i1 %.not16.i, label %Vec_MemFree.exit, label %._crit_edge.thread.i

._crit_edge.thread.i:                             ; preds = %36, %._crit_edge.i
  %40 = phi ptr [ %.pre23.i, %._crit_edge.i ], [ %38, %36 ]
  tail call void @free(ptr noundef nonnull %40) #22
  br label %Vec_MemFree.exit

Vec_MemFree.exit:                                 ; preds = %._crit_edge.i, %._crit_edge.thread.i
  tail call void @free(ptr noundef nonnull %26) #22
  %41 = getelementptr inbounds nuw i8, ptr %0, i64 32
  %42 = load ptr, ptr %41, align 8, !tbaa !39
  %.not = icmp eq ptr %42, null
  br i1 %.not, label %44, label %43

43:                                               ; preds = %Vec_MemFree.exit
  tail call void @free(ptr noundef nonnull %42) #22
  store ptr null, ptr %41, align 8, !tbaa !39
  br label %44

44:                                               ; preds = %Vec_MemFree.exit, %43
  %45 = getelementptr inbounds nuw i8, ptr %0, i64 16
  %46 = load ptr, ptr %45, align 8, !tbaa !3
  %.not12 = icmp eq ptr %46, null
  br i1 %.not12, label %48, label %47

47:                                               ; preds = %44
  tail call void @free(ptr noundef nonnull %46) #22
  br label %48

48:                                               ; preds = %44, %47
  tail call void @free(ptr noundef nonnull %0) #22
  ret i32 1
}